(dp0
(I70
I100
tp1
(dp2
(I0
F0.8
tp3
(dp4
S'c'
p5
F0.11302473017543409
sS'b'
p6
F0.7061481586455427
sS'other'
p7
F0.007399339634109654
ss(F1.6
F2.4
tp8
(dp9
g5
F0.10300764584125374
sg6
F0.5806026926227011
sg7
F0.015538343607812343
ss(F0.8
F1.6
tp10
(dp11
g5
F0.11399242039927188
sg6
F0.671043846407523
sg7
F0.01028884363640305
sss(I600
I1000
tp12
(dp13
(I0
F0.8
tp14
(dp15
g5
F0.10751206064782909
sg6
F0.46160198183319573
sg7
F0.02001039501039501
ss(F1.6
F2.4
tp16
(dp17
g5
F0.12682926829268293
sg6
F0.25
sg7
F0.03529839883551674
ss(F0.8
F1.6
tp18
(dp19
g5
F0.1568836712913554
sg6
F0.4240400667779633
sg7
F0.03482955748464959
sss(I200
I300
tp20
(dp21
(I0
F0.8
tp22
(dp23
g5
F0.12508795893869779
sg6
F0.6604261924555752
sg7
F0.010117649400804236
ss(F1.6
F2.4
tp24
(dp25
g5
F0.11885724553050041
sg6
F0.4833575682728124
sg7
F0.02507433384074775
ss(F0.8
F1.6
tp26
(dp27
g5
F0.13129203179131851
sg6
F0.6079547922004603
sg7
F0.015723854120816474
sss(I100
I140
tp28
(dp29
(I0
F0.8
tp30
(dp31
g5
F0.12199708342927316
sg6
F0.7080424386778406
sg7
F0.007431677948722017
ss(F1.6
F2.4
tp32
(dp33
g5
F0.10869565217391304
sg6
F0.5709351439638635
sg7
F0.017377652226132995
ss(F0.8
F1.6
tp34
(dp35
g5
F0.12011538888272495
sg6
F0.6701135979659343
sg7
F0.010526270499121197
sss(I1000
I-1
tp36
(dp37
(I0
F0.8
tp38
(dp39
g5
F0.12931034482758622
sg6
F0.4246575342465753
sg7
F0.03219512195121951
ss(F1.6
F2.4
tp40
(dp41
g5
F0.0
sg6
F0.0
sg7
F0.02040816326530612
ss(F0.8
F1.6
tp42
(dp43
g5
F0.16666666666666666
sg6
F0.2727272727272727
sg7
F0.03904923599320883
sss(I50
I70
tp44
(dp45
(I0
F0.8
tp46
(dp47
g5
F0.1100003180425541
sg6
F0.6917180998735688
sg7
F0.007571288639334652
ss(F1.6
F2.4
tp48
(dp49
g5
F0.09842429404442114
sg6
F0.5710874288753687
sg7
F0.015809356043346223
ss(F0.8
F1.6
tp50
(dp51
g5
F0.10823295100062388
sg6
F0.656354352652077
sg7
F0.010388126699760391
sss(I300
I600
tp52
(dp53
(I0
F0.8
tp54
(dp55
g5
F0.12167681834467933
sg6
F0.5926339078215925
sg7
F0.013871735667364727
ss(F1.6
F2.4
tp56
(dp57
g5
F0.13528183716075157
sg6
F0.4186489058039962
sg7
F0.03415954002995603
ss(F0.8
F1.6
tp58
(dp59
g5
F0.14014051522248244
sg6
F0.5381993182273912
sg7
F0.024218849262585884
sss(I30
I50
tp60
(dp61
(I0
F0.8
tp62
(dp63
g5
F0.11741657696447794
sg6
F0.6577305788302659
sg7
F0.010121852787252323
ss(F1.6
F2.4
tp64
(dp65
g5
F0.09815054381677926
sg6
F0.5375360319852706
sg7
F0.018588174407508425
ss(F0.8
F1.6
tp66
(dp67
g5
F0.1152746884426704
sg6
F0.6228628258691735
sg7
F0.013399610785972037
sss(I140
I200
tp68
(dp69
(I0
F0.8
tp70
(dp71
g5
F0.12301099920849368
sg6
F0.6940475681877827
sg7
F0.008243613622253516
ss(F1.6
F2.4
tp72
(dp73
g5
F0.12016865776528461
sg6
F0.5553779710609643
sg7
F0.023578141115462213
ss(F0.8
F1.6
tp74
(dp75
g5
F0.12869548560117489
sg6
F0.6569019731341709
sg7
F0.013237332711466957
sss.