(dp0
(I70
I100
tp1
(dp2
(I0
F0.8
tp3
(dp4
S'c'
p5
F0.1129706631036985
sS'b'
p6
F0.7064147354053006
sS'other'
p7
F0.007927365242980296
ss(F1.6
F2.4
tp8
(dp9
g5
F0.10270207718567378
sg6
F0.5830594676755692
sg7
F0.015763894368910406
ss(F0.8
F1.6
tp10
(dp11
g5
F0.11435022511990808
sg6
F0.6713101240531151
sg7
F0.010789054386724579
sss(I200
I300
tp12
(dp13
(I0
F0.8
tp14
(dp15
g5
F0.12545784157756484
sg6
F0.6612780338852408
sg7
F0.010255295167009102
ss(F1.6
F2.4
tp16
(dp17
g5
F0.11866883116883117
sg6
F0.4847054648687012
sg7
F0.02532565731828419
ss(F0.8
F1.6
tp18
(dp19
g5
F0.13228546767819016
sg6
F0.6095052548620323
sg7
F0.01589095208025714
sss(I600
I-1
tp20
(dp21
(I0
F0.8
tp22
(dp23
g5
F0.10901826484018265
sg6
F0.45230369889682026
sg7
F0.02091960588319292
ss(F1.6
F2.4
tp24
(dp25
g5
F0.13100436681222707
sg6
F0.25742574257425743
sg7
F0.03570269393054203
ss(F0.8
F1.6
tp26
(dp27
g5
F0.1541251133272892
sg6
F0.42539267015706805
sg7
F0.035589734418313514
sss(I100
I140
tp28
(dp29
(I0
F0.8
tp30
(dp31
g5
F0.12227449095216839
sg6
F0.7084019633529437
sg7
F0.007906546804216825
ss(F1.6
F2.4
tp32
(dp33
g5
F0.10923177006327991
sg6
F0.5729902455432223
sg7
F0.01760853366798698
ss(F0.8
F1.6
tp34
(dp35
g5
F0.11945561520632342
sg6
F0.6704674256672798
sg7
F0.010869815447185665
sss(I50
I70
tp36
(dp37
(I0
F0.8
tp38
(dp39
g5
F0.11003713932006476
sg6
F0.6919704589823262
sg7
F0.008072719314953578
ss(F1.6
F2.4
tp40
(dp41
g5
F0.09853060488596412
sg6
F0.5737613522961047
sg7
F0.0160010286623798
ss(F0.8
F1.6
tp42
(dp43
g5
F0.10823014667054627
sg6
F0.6563887277474421
sg7
F0.010858065393304358
sss(I300
I600
tp44
(dp45
(I0
F0.8
tp46
(dp47
g5
F0.12164499391454743
sg6
F0.5926984604583522
sg7
F0.013949286947624224
ss(F1.6
F2.4
tp48
(dp49
g5
F0.13442684766214177
sg6
F0.42630920961244617
sg7
F0.03429629411937579
ss(F0.8
F1.6
tp50
(dp51
g5
F0.13883081040394749
sg6
F0.5383269578625863
sg7
F0.02443666728065328
sss(I30
I50
tp52
(dp53
(I0
F0.8
tp54
(dp55
g5
F0.1174084162974883
sg6
F0.6578219263116033
sg7
F0.01053813718198749
ss(F1.6
F2.4
tp56
(dp57
g5
F0.09890566863646312
sg6
F0.5398057909890018
sg7
F0.018824675667886308
ss(F0.8
F1.6
tp58
(dp59
g5
F0.11572565157750343
sg6
F0.6229614180288731
sg7
F0.013804295912222441
sss(I140
I200
tp60
(dp61
(I0
F0.8
tp62
(dp63
g5
F0.12253205284453761
sg6
F0.6947871676935118
sg7
F0.008528203273059084
ss(F1.6
F2.4
tp64
(dp65
g5
F0.12127417519908988
sg6
F0.5576982878672477
sg7
F0.0238387340033991
ss(F0.8
F1.6
tp66
(dp67
g5
F0.13009619789280807
sg6
F0.6579279619202415
sg7
F0.013597448380057076
sss.