(dp0
(I70
I100
tp1
(dp2
(I0
F0.8
tp3
(dp4
S'c'
p5
F0.10771674357131264
sS'b'
p6
F0.7502619838647391
sS'other'
p7
F0.008099817891475628
ss(F1.6
F2.4
tp8
(dp9
g5
F0.10380233302925021
sg6
F0.6338231171427112
sg7
F0.015152317550707617
ss(F0.8
F1.6
tp10
(dp11
g5
F0.11193106970992284
sg6
F0.720092506262987
sg7
F0.010929373084749384
sss(I600
I1000
tp12
(dp13
(I0
F0.8
tp14
(dp15
g5
F0.14196762141967623
sg6
F0.5475364330326162
sg7
F0.029453125
ss(F1.6
F2.4
tp16
(dp17
g5
F0.13777777777777778
sg6
F0.38
sg7
F0.037296037296037296
ss(F0.8
F1.6
tp18
(dp19
g5
F0.1309408341416101
sg6
F0.5125
sg7
F0.040531497944747155
sss(I200
I300
tp20
(dp21
(I0
F0.8
tp22
(dp23
g5
F0.12798272717120202
sg6
F0.7232402077943778
sg7
F0.01082713214997186
ss(F1.6
F2.4
tp24
(dp25
g5
F0.1080130825838103
sg6
F0.5436692137399128
sg7
F0.020414029174097372
ss(F0.8
F1.6
tp26
(dp27
g5
F0.12896589558379812
sg6
F0.6717615176151761
sg7
F0.016497613507689808
sss(I100
I140
tp28
(dp29
(I0
F0.8
tp30
(dp31
g5
F0.11512083887574066
sg6
F0.7542432392430295
sg7
F0.008214664249788287
ss(F1.6
F2.4
tp32
(dp33
g5
F0.1068983989048271
sg6
F0.6226291182878118
sg7
F0.015535207131982639
ss(F0.8
F1.6
tp34
(dp35
g5
F0.1130950005984918
sg6
F0.7188872427388445
sg7
F0.011234392921830406
sss(I1000
I-1
tp36
(dp37
(I0
F0.8
tp38
(dp39
g5
F0.1297709923664122
sg6
F0.43333333333333335
sg7
F0.033928571428571426
ss(F1.6
F2.4
tp40
(dp41
g5
F0.0
sg6
F0.0
sg7
F0.05172413793103448
ss(F0.8
F1.6
tp42
(dp43
g5
F0.20634920634920634
sg6
F0.45
sg7
F0.04503105590062112
sss(I50
I70
tp44
(dp45
(I0
F0.8
tp46
(dp47
g5
F0.10863563156683795
sg6
F0.7371168934940214
sg7
F0.00830073902195853
ss(F1.6
F2.4
tp48
(dp49
g5
F0.10566745297284219
sg6
F0.6315998174458884
sg7
F0.016001128695808317
ss(F0.8
F1.6
tp50
(dp51
g5
F0.11323497504881753
sg6
F0.7094991520512915
sg7
F0.01186575706738521
sss(I300
I600
tp52
(dp53
(I0
F0.8
tp54
(dp55
g5
F0.14122727858708264
sg6
F0.6694313593539704
sg7
F0.018012942274878464
ss(F1.6
F2.4
tp56
(dp57
g5
F0.11585944919278253
sg6
F0.45987438939288205
sg7
F0.024371127312521258
ss(F0.8
F1.6
tp58
(dp59
g5
F0.13447432762836187
sg6
F0.5997016706443914
sg7
F0.025277451594960403
sss(I30
I50
tp60
(dp61
(I0
F0.8
tp62
(dp63
g5
F0.11599726709287005
sg6
F0.7031516381517047
sg7
F0.01030191124968124
ss(F1.6
F2.4
tp64
(dp65
g5
F0.10844205453690645
sg6
F0.5947146568662264
sg7
F0.01857243742474381
ss(F0.8
F1.6
tp66
(dp67
g5
F0.11950321123462722
sg6
F0.6740641302989985
sg7
F0.013932765813779632
sss(I140
I200
tp68
(dp69
(I0
F0.8
tp70
(dp71
g5
F0.1219284679775143
sg6
F0.7500889376608172
sg7
F0.009245000665401047
ss(F1.6
F2.4
tp72
(dp73
g5
F0.11117727897388914
sg6
F0.602197413366842
sg7
F0.01860147149914641
ss(F0.8
F1.6
tp74
(dp75
g5
F0.12279185037895161
sg6
F0.7095295903326511
sg7
F0.013223058637083994
sss.