(dp0
(I70
I100
tp1
(dp2
(I0
F2.4
tp3
(dp4
S'c'
p5
F0.11095400364803529
sS'b'
p6
F0.6762049507864101
sS'other'
p7
F0.011039909276243147
sss(I600
I1000
tp8
(dp9
(I0
F2.4
tp10
(dp11
g5
F0.12578616352201258
sg6
F0.43918620079610793
sg7
F0.0278708498324703
sss(I200
I300
tp12
(dp13
(I0
F2.4
tp14
(dp15
g5
F0.12646185641412566
sg6
F0.6270129153123796
sg7
F0.016214482845670737
sss(I100
I140
tp16
(dp17
(I0
F2.4
tp18
(dp19
g5
F0.11819369417081524
sg6
F0.6776477934280682
sg7
F0.011580265983498475
sss(I1000
I-1
tp20
(dp21
(I0
F2.4
tp22
(dp23
g5
F0.14646464646464646
sg6
F0.3923076923076923
sg7
F0.033479692645444564
sss(I50
I70
tp24
(dp25
(I0
F2.4
tp26
(dp27
g5
F0.10650968685268673
sg6
F0.6602917663998444
sg7
F0.01117131377085109
sss(I300
I600
tp28
(dp29
(I0
F2.4
tp30
(dp31
g5
F0.12987132352941178
sg6
F0.5628164794007491
sg7
F0.022367662095907292
sss(I30
I50
tp32
(dp33
(I0
F2.4
tp34
(dp35
g5
F0.11197021380101548
sg6
F0.6237572718933829
sg7
F0.01394255635193306
sss(I140
I200
tp36
(dp37
(I0
F2.4
tp38
(dp39
g5
F0.12482008471439733
sg6
F0.6665838210045774
sg7
F0.014472043899625805
sss.