(dp0
(I70
I100
tp1
(dp2
(I0
F0.8
tp3
(dp4
S'c'
p5
F0.10766076550063926
sS'b'
p6
F0.7502673503032359
sS'other'
p7
F0.008102073016930274
ss(F1.6
F2.4
tp8
(dp9
g5
F0.1038014233639993
sg6
F0.6338348854112955
sg7
F0.01512331208890168
ss(F0.8
F1.6
tp10
(dp11
g5
F0.11189194244412083
sg6
F0.720089791658023
sg7
F0.010927762184876991
sss(I200
I300
tp12
(dp13
(I0
F0.8
tp14
(dp15
g5
F0.12819564171815456
sg6
F0.7232527459496316
sg7
F0.010827745654479536
ss(F1.6
F2.4
tp16
(dp17
g5
F0.10811688311688311
sg6
F0.5434528034066713
sg7
F0.020431873202962234
ss(F0.8
F1.6
tp18
(dp19
g5
F0.12915095625312314
sg6
F0.6716139548772071
sg7
F0.016470186067048708
sss(I600
I-1
tp20
(dp21
(I0
F0.8
tp22
(dp23
g5
F0.14098173515981735
sg6
F0.5405580791693705
sg7
F0.029915750392688848
ss(F1.6
F2.4
tp24
(dp25
g5
F0.13537117903930132
sg6
F0.38613861386138615
sg7
F0.037650113599480686
ss(F0.8
F1.6
tp26
(dp27
g5
F0.13508612873980055
sg6
F0.506544502617801
sg7
F0.040865599570777074
sss(I100
I140
tp28
(dp29
(I0
F0.8
tp30
(dp31
g5
F0.11504652680012362
sg6
F0.7542501754302392
sg7
F0.008222314737718568
ss(F1.6
F2.4
tp32
(dp33
g5
F0.10689573599858064
sg6
F0.6225609237718218
sg7
F0.015517765402564807
ss(F0.8
F1.6
tp34
(dp35
g5
F0.11325501693773649
sg6
F0.7189112165444912
sg7
F0.011230479990791544
sss(I50
I70
tp36
(dp37
(I0
F0.8
tp38
(dp39
g5
F0.10862774973812019
sg6
F0.7371140349050478
sg7
F0.008304526315362888
ss(F1.6
F2.4
tp40
(dp41
g5
F0.10572733555695785
sg6
F0.6315435405969445
sg7
F0.015999870258798943
ss(F0.8
F1.6
tp42
(dp43
g5
F0.11311198042955826
sg6
F0.7094713611791622
sg7
F0.011864725739080482
sss(I300
I600
tp44
(dp45
(I0
F0.8
tp46
(dp47
g5
F0.14143872910127475
sg6
F0.6691907794660916
sg7
F0.01798618660868453
ss(F1.6
F2.4
tp48
(dp49
g5
F0.11576168929110106
sg6
F0.4595082650368107
sg7
F0.024348311634878186
ss(F0.8
F1.6
tp50
(dp51
g5
F0.13423099439658778
sg6
F0.5996797437950361
sg7
F0.025287477304423336
sss(I30
I50
tp52
(dp53
(I0
F0.8
tp54
(dp55
g5
F0.11600279186094982
sg6
F0.7031247202602735
sg7
F0.01029748740581356
ss(F1.6
F2.4
tp56
(dp57
g5
F0.1084190559568104
sg6
F0.5946822218122402
sg7
F0.018575860655615093
ss(F0.8
F1.6
tp58
(dp59
g5
F0.11959396433470508
sg6
F0.6740329293333607
sg7
F0.013949255395447873
sss(I140
I200
tp60
(dp61
(I0
F0.8
tp62
(dp63
g5
F0.12204455711012528
sg6
F0.7500937391592182
sg7
F0.00924631092441512
ss(F1.6
F2.4
tp64
(dp65
g5
F0.11108077360637088
sg6
F0.6022930590796216
sg7
F0.018601265846530178
ss(F0.8
F1.6
tp66
(dp67
g5
F0.12299587723316537
sg6
F0.7095721832007894
sg7
F0.013238554467939775
sss.