(dp0
(I70
I100
tp1
(dp2
(I0
F0.8
tp3
(dp4
S'c'
p5
F0.11833945070244273
sS'b'
p6
F0.7392290866352527
sS'other'
p7
F0.006875102308070061
ss(F1.6
F2.4
tp8
(dp9
g5
F0.1377952755905512
sg6
F0.6666120086809741
sg7
F0.019460391153862194
ss(F0.8
F1.6
tp10
(dp11
g5
F0.11967006850272613
sg6
F0.7007905875259332
sg7
F0.009713712122796378
sss(I200
I300
tp12
(dp13
(I0
F0.8
tp14
(dp15
g5
F0.11561382598331346
sg6
F0.6771402806740686
sg7
F0.008266729352766023
ss(F1.6
F2.4
tp16
(dp17
g5
F0.1431906614785992
sg6
F0.511765598906938
sg7
F0.02404055822067161
ss(F0.8
F1.6
tp18
(dp19
g5
F0.1274787535410765
sg6
F0.6038415913860754
sg7
F0.010450954575378538
sss(I600
I-1
tp20
(dp21
(I0
F0.8
tp22
(dp23
g5
F0.09333333333333334
sg6
F0.4175824175824176
sg7
F0.019744483159117306
ss(F1.6
F2.4
tp24
(dp25
g5
F0.11764705882352941
sg6
F0.21428571428571427
sg7
F0.02356020942408377
ss(F0.8
F1.6
tp26
(dp27
g5
F0.09322033898305085
sg6
F0.3625
sg7
F0.02406015037593985
sss(I100
I140
tp28
(dp29
(I0
F0.8
tp30
(dp31
g5
F0.12409420289855072
sg6
F0.7331490309051057
sg7
F0.006276640592065202
ss(F1.6
F2.4
tp32
(dp33
g5
F0.13211701793016672
sg6
F0.6486784322110561
sg7
F0.021042573521605264
ss(F0.8
F1.6
tp34
(dp35
g5
F0.12870662460567822
sg6
F0.6948646688446307
sg7
F0.010988462945107557
sss(I50
I70
tp36
(dp37
(I0
F0.8
tp38
(dp39
g5
F0.11788535547903585
sg6
F0.7342997150623198
sg7
F0.007796780684104628
ss(F1.6
F2.4
tp40
(dp41
g5
F0.12532938076416336
sg6
F0.6699320909945212
sg7
F0.02005556149161235
ss(F0.8
F1.6
tp42
(dp43
g5
F0.12249341125243497
sg6
F0.6965976616042008
sg7
F0.011011523687580026
sss(I300
I600
tp44
(dp45
(I0
F0.8
tp46
(dp47
g5
F0.1091283459162663
sg6
F0.5885997521685254
sg7
F0.010855285901956717
ss(F1.6
F2.4
tp48
(dp49
g5
F0.1295971978984238
sg6
F0.44483985765124556
sg7
F0.025164249411181356
ss(F0.8
F1.6
tp50
(dp51
g5
F0.11733800350262696
sg6
F0.5315439955727725
sg7
F0.015801013079307476
sss(I30
I50
tp52
(dp53
(I0
F0.8
tp54
(dp55
g5
F0.12672118174624108
sg6
F0.707394066939172
sg7
F0.009307836059028176
ss(F1.6
F2.4
tp56
(dp57
g5
F0.13601312551271533
sg6
F0.6450128054267322
sg7
F0.02221625052702784
ss(F0.8
F1.6
tp58
(dp59
g5
F0.12379310344827586
sg6
F0.6705961221122112
sg7
F0.013465893476468604
sss(I140
I200
tp60
(dp61
(I0
F0.8
tp62
(dp63
g5
F0.12356621480709072
sg6
F0.7169576278620932
sg7
F0.006833981383292094
ss(F1.6
F2.4
tp64
(dp65
g5
F0.14009661835748793
sg6
F0.604351087771943
sg7
F0.023105805333590065
ss(F0.8
F1.6
tp66
(dp67
g5
F0.12507392075694856
sg6
F0.6699588255873409
sg7
F0.010386091668548205
sss.