(dp0
(I70
I100
tp1
(dp2
(I0
F0.8
tp3
(dp4
S'c'
p5
F0.12732565498038223
sS'b'
p6
F0.791130252146565
sS'other'
p7
F0.006855844318411601
ss(F1.6
F2.4
tp8
(dp9
g5
F0.13427268959801078
sg6
F0.7175982638051603
sg7
F0.017639454553036515
ss(F0.8
F1.6
tp10
(dp11
g5
F0.13420942261987978
sg6
F0.766322478787422
sg7
F0.012693699157238754
sss(I200
I300
tp12
(dp13
(I0
F0.8
tp14
(dp15
g5
F0.1315057608263806
sg6
F0.7437862819139942
sg7
F0.007953298855978687
ss(F1.6
F2.4
tp16
(dp17
g5
F0.1245136186770428
sg6
F0.582207378169121
sg7
F0.01853467073702573
ss(F0.8
F1.6
tp18
(dp19
g5
F0.12889518413597734
sg6
F0.686330869604891
sg7
F0.012919684002633311
sss(I600
I-1
tp20
(dp21
(I0
F0.8
tp22
(dp23
g5
F0.04
sg6
F0.3791208791208791
sg7
F0.006387921022067364
ss(F1.6
F2.4
tp24
(dp25
g5
F0.058823529411764705
sg6
F0.42857142857142855
sg7
F0.002617801047120419
ss(F0.8
F1.6
tp26
(dp27
g5
F0.03389830508474576
sg6
F0.3125
sg7
F0.010526315789473684
sss(I100
I140
tp28
(dp29
(I0
F0.8
tp30
(dp31
g5
F0.13659420289855073
sg6
F0.7943994453702627
sg7
F0.00783799397317595
ss(F1.6
F2.4
tp32
(dp33
g5
F0.13526266121421832
sg6
F0.7048800144739222
sg7
F0.019089075273383587
ss(F0.8
F1.6
tp34
(dp35
g5
F0.15289169295478444
sg6
F0.7663973094227967
sg7
F0.013997406656248962
sss(I50
I70
tp36
(dp37
(I0
F0.8
tp38
(dp39
g5
F0.10998582134899737
sg6
F0.7757168561693657
sg7
F0.006654210980166715
ss(F1.6
F2.4
tp40
(dp41
g5
F0.12681159420289856
sg6
F0.7115817656341424
sg7
F0.01752323966235709
ss(F0.8
F1.6
tp42
(dp43
g5
F0.13246247278560788
sg6
F0.7561454565448769
sg7
F0.012610095836728358
sss(I300
I600
tp44
(dp45
(I0
F0.8
tp46
(dp47
g5
F0.09334248455730954
sg6
F0.6322800495662949
sg7
F0.007190762635691073
ss(F1.6
F2.4
tp48
(dp49
g5
F0.08231173380035026
sg6
F0.4365361803084223
sg7
F0.013635800173546547
ss(F0.8
F1.6
tp50
(dp51
g5
F0.08056042031523643
sg6
F0.5630879911455451
sg7
F0.011794057609435245
sss(I30
I50
tp52
(dp53
(I0
F0.8
tp54
(dp55
g5
F0.10714850962806648
sg6
F0.7391183374478935
sg7
F0.006660142890338374
ss(F1.6
F2.4
tp56
(dp57
g5
F0.11936013125512715
sg6
F0.6798504879905862
sg7
F0.01706411901794443
ss(F0.8
F1.6
tp58
(dp59
g5
F0.12632183908045977
sg6
F0.720166391639164
sg7
F0.012498825952196252
sss(I140
I200
tp60
(dp61
(I0
F0.8
tp62
(dp63
g5
F0.13660062565172054
sg6
F0.7872795859285903
sg7
F0.008224343112996347
ss(F1.6
F2.4
tp64
(dp65
g5
F0.13614404918752745
sg6
F0.6644411102775694
sg7
F0.018869741022431885
ss(F0.8
F1.6
tp66
(dp67
g5
F0.14222353636901242
sg6
F0.7450550337737829
sg7
F0.013296204309977171
sss.