(dp0
(I70
I100
tp1
(dp2
(I0
F0.8
tp3
(dp4
S'c'
p5
F0.1130266422426786
sS'b'
p6
F0.7064214972524376
sS'other'
p7
F0.007922874786926432
ss(F1.6
F2.4
tp8
(dp9
g5
F0.10269598804371033
sg6
F0.5830174698474997
sg7
F0.015776914522113224
ss(F0.8
F1.6
tp10
(dp11
g5
F0.1142699680081727
sg6
F0.6713130798950095
sg7
F0.01079096511633554
sss(I600
I1000
tp12
(dp13
(I0
F0.8
tp14
(dp15
g5
F0.10772104607721046
sg6
F0.45523941707147814
sg7
F0.02
ss(F1.6
F2.4
tp16
(dp17
g5
F0.13333333333333333
sg6
F0.26
sg7
F0.036297036297036296
ss(F0.8
F1.6
tp18
(dp19
g5
F0.15227934044616878
sg6
F0.43194444444444446
sg7
F0.035082688079533506
sss(I200
I300
tp20
(dp21
(I0
F0.8
tp22
(dp23
g5
F0.1252280087853181
sg6
F0.661337534575206
sg7
F0.010246469122126834
ss(F1.6
F2.4
tp24
(dp25
g5
F0.11856091578086672
sg6
F0.48494965364564735
sg7
F0.02535259111189501
ss(F0.8
F1.6
tp26
(dp27
g5
F0.13239462375422875
sg6
F0.6095392953929539
sg7
F0.0159147264969924
sss(I100
I140
tp28
(dp29
(I0
F0.8
tp30
(dp31
g5
F0.1224281790384715
sg6
F0.708376002799701
sg7
F0.007898647341108296
ss(F1.6
F2.4
tp32
(dp33
g5
F0.10921968930420808
sg6
F0.5730171103475091
sg7
F0.01761775395844283
ss(F0.8
F1.6
tp34
(dp35
g5
F0.11931931532538004
sg6
F0.6704151148554651
sg7
F0.010859784426327639
sss(I1000
I-1
tp36
(dp37
(I0
F0.8
tp38
(dp39
g5
F0.1297709923664122
sg6
F0.4222222222222222
sg7
F0.029464285714285714
ss(F1.6
F2.4
tp40
(dp41
g5
F0.0
sg6
F0.0
sg7
F0.017241379310344827
ss(F0.8
F1.6
tp42
(dp43
g5
F0.19047619047619047
sg6
F0.325
sg7
F0.04192546583850932
sss(I50
I70
tp44
(dp45
(I0
F0.8
tp46
(dp47
g5
F0.10999693228008282
sg6
F0.691965834641341
sg7
F0.008068213897006871
ss(F1.6
F2.4
tp48
(dp49
g5
F0.09842436339442327
sg6
F0.5737782341630567
sg7
F0.01599296663934321
ss(F0.8
F1.6
tp50
(dp51
g5
F0.10836407029724453
sg6
F0.656422170358832
sg7
F0.010870599623145296
sss(I300
I600
tp52
(dp53
(I0
F0.8
tp54
(dp55
g5
F0.12143870052855485
sg6
F0.5928835800807537
sg7
F0.013964457036154664
ss(F1.6
F2.4
tp56
(dp57
g5
F0.1339031339031339
sg6
F0.4267969295184927
sg7
F0.03429408024134514
ss(F0.8
F1.6
tp58
(dp59
g5
F0.1391113734086502
sg6
F0.5385739856801909
sg7
F0.02446518280462287
sss(I30
I50
tp60
(dp61
(I0
F0.8
tp62
(dp63
g5
F0.11742228295349177
sg6
F0.6578452703271577
sg7
F0.010531345970753649
ss(F1.6
F2.4
tp64
(dp65
g5
F0.0988848730606488
sg6
F0.5398571952749568
sg7
F0.018818878707222236
ss(F0.8
F1.6
tp66
(dp67
g5
F0.11563758055698216
sg6
F0.62297364554437
sg7
F0.013790483999324765
sss(I140
I200
tp68
(dp69
(I0
F0.8
tp70
(dp71
g5
F0.12241942214694258
sg6
F0.6947810063037508
sg7
F0.008536144856449908
ss(F1.6
F2.4
tp72
(dp73
g5
F0.1211635364177737
sg6
F0.5576412736287715
sg7
F0.02385520690124035
ss(F0.8
F1.6
tp74
(dp75
g5
F0.12993861848361718
sg6
F0.6578986196388477
sg7
F0.01360177589260744
sss.